(dp0
Vengine
p1
S'pdflatex'
p2
sVpackages
p3
c__builtin__
set
p4
((lp5
Vlistings
p6
aVamsmath
p7
aVfloat
p8
aVdirtytalk
p9
aVmicrotype
p10
aVinputenc
p11
aVwrapfig
p12
aVsubcaption
p13
atp14
Rp15
sVfiles_with_guttermarks
p16
g4
((lp17
S'data_detox.tex'
p18
aV/Users/developer2/Developer/itu/big-data/project1/./data_detox.tex
p19
atp20
Rp21
sVsynctex
p22
I01
s.