(dp0
Vengine
p1
S'pdflatex'
p2
sVpackages
p3
c__builtin__
set
p4
((lp5
Vlistings
p6
aVamsmath
p7
aVfloat
p8
aVmicrotype
p9
aVinputenc
p10
aVwrapfig
p11
aVsubcaption
p12
atp13
Rp14
sVfiles_with_guttermarks
p15
g4
((lp16
S'main.tex'
p17
atp18
Rp19
sVsynctex
p20
I01
s.